target datalayout = "e-m:e-p270:32:32-p271:32:32-p272:64:64-i64:64-i128:128-f80:128-n8:16:32:64-S128"
target triple = "x86_64-pc-linux-gnu"

@hf_gryphon_ldf_name = internal global i32 0, align 4
@hf_gryphon_ldf_description = internal global i32 0, align 4
@hf_gryphon_ldf_size = internal global i32 0, align 4
@.str.1037 = private unnamed_addr constant [3 x i8] c"%u\00", align 1

; Function Attrs: null_pointer_is_valid sspstrong uwtable
define internal i32 @cmd_ldf_desc(ptr noundef %0, i32 noundef %1, ptr noundef %2) #0 {
  %4 = alloca ptr, align 8
  %5 = alloca i32, align 4
  %6 = alloca ptr, align 8
  %7 = alloca i32, align 4
  store ptr %0, ptr %4, align 8
  store i32 %1, ptr %5, align 4
  store ptr %2, ptr %6, align 8
  call void @llvm.lifetime.start.p0(i64 4, ptr %7) #7
  %8 = load ptr, ptr %4, align 8
  %9 = load i32, ptr %5, align 4
  %10 = call i32 @tvb_get_ntohl(ptr noundef %8, i32 noundef %9)
  store i32 %10, ptr %7, align 4
  %11 = load ptr, ptr %6, align 8
  %12 = load i32, ptr @hf_gryphon_ldf_size, align 4
  %13 = load ptr, ptr %4, align 8
  %14 = load i32, ptr %5, align 4
  %15 = load i32, ptr %7, align 4
  %16 = load i32, ptr %7, align 4
  %17 = call ptr (ptr, i32, ptr, i32, i32, i32, ptr, ...) @proto_tree_add_uint_format_value(ptr noundef %11, i32 noundef %12, ptr noundef %13, i32 noundef %14, i32 noundef 4, i32 noundef %15, ptr noundef @.str.1037, i32 noundef %16)
  %18 = load i32, ptr %5, align 4
  %19 = add i32 %18, 4
  store i32 %19, ptr %5, align 4
  %20 = load ptr, ptr %6, align 8
  %21 = load i32, ptr @hf_gryphon_ldf_name, align 4
  %22 = load ptr, ptr %4, align 8
  %23 = load i32, ptr %5, align 4
  %24 = call ptr @proto_tree_add_item(ptr noundef %20, i32 noundef %21, ptr noundef %22, i32 noundef %23, i32 noundef 32, i32 noundef 0)
  %25 = load i32, ptr %5, align 4
  %26 = add i32 %25, 32
  store i32 %26, ptr %5, align 4
  %27 = load ptr, ptr %6, align 8
  %28 = load i32, ptr @hf_gryphon_ldf_description, align 4
  %29 = load ptr, ptr %4, align 8
  %30 = load i32, ptr %5, align 4
  %31 = call ptr @proto_tree_add_item(ptr noundef %27, i32 noundef %28, ptr noundef %29, i32 noundef %30, i32 noundef 80, i32 noundef 0)
  %32 = load i32, ptr %5, align 4
  %33 = add i32 %32, 80
  store i32 %33, ptr %5, align 4
  %34 = load i32, ptr %5, align 4
  call void @llvm.lifetime.end.p0(i64 4, ptr %7) #7
  ret i32 %34
}