; Function Attrs: null_pointer_is_valid sspstrong uwtable
define internal fastcc void @cmd_ldf_desc(ptr noundef %0, ptr noundef %1) unnamed_addr #0 {
  %3 = tail call i32 @tvb_get_ntohl(ptr noundef %0, i32 noundef 12)
  %4 = load i32, ptr @hf_gryphon_ldf_size, align 4
  %5 = tail call ptr (ptr, i32, ptr, i32, i32, i32, ptr, ...) @proto_tree_add_uint_format_value(ptr noundef %1, i32 noundef %4, ptr noundef %0, i32 noundef 12, i32 noundef 4, i32 noundef %3, ptr noundef nonnull @.str.1037, i32 noundef %3)
  %6 = load i32, ptr @hf_gryphon_ldf_name, align 4
  %7 = tail call ptr @proto_tree_add_item(ptr noundef %1, i32 noundef %6, ptr noundef %0, i32 noundef 16, i32 noundef 32, i32 noundef 0)
  %8 = load i32, ptr @hf_gryphon_ldf_description, align 4
  %9 = tail call ptr @proto_tree_add_item(ptr noundef %1, i32 noundef %8, ptr noundef %0, i32 noundef 48, i32 noundef 80, i32 noundef 0)
  ret void
}